target datalayout = "e-m:e-p270:32:32-p271:32:32-p272:64:64-i64:64-i128:128-f80:128-n8:16:32:64-S128"
target triple = "x86_64-unknown-linux-gnu"

%"struct.node::AssertionInfo" = type { ptr, ptr, ptr }
%"class.node::tracing::NodeTraceWriter" = type <{ %"class.node::tracing::AsyncTraceWriter", ptr, %struct.uv_async_s, %struct.uv_async_s, %"class.node::MutexBase", %"class.node::MutexBase", %"class.node::ConditionVariableBase", %"class.node::ConditionVariableBase", i32, [4 x i8], %struct.uv_fs_s, %"class.std::queue", i32, i32, i32, i32, %"class.std::__cxx11::basic_string", %"class.std::__cxx11::basic_ostringstream", %"class.std::unique_ptr", i8, [7 x i8] }>
%"class.node::tracing::AsyncTraceWriter" = type { ptr }
%struct.uv_async_s = type { ptr, ptr, i32, ptr, %struct.uv__queue, %union.anon, ptr, i32, ptr, %struct.uv__queue, i32 }
%union.anon = type { [4 x ptr] }
%struct.uv__queue = type { ptr, ptr }
%"class.node::MutexBase" = type { %union.pthread_mutex_t }
%union.pthread_mutex_t = type { %struct.__pthread_mutex_s }
%struct.__pthread_mutex_s = type { i32, i32, i32, i32, i32, i16, i16, %struct.__pthread_internal_list }
%struct.__pthread_internal_list = type { ptr, ptr }
%"class.node::ConditionVariableBase" = type { %union.pthread_cond_t }
%union.pthread_cond_t = type { %struct.__pthread_cond_s }
%struct.__pthread_cond_s = type { %union.__atomic_wide_counter, %union.__atomic_wide_counter, [2 x i32], [2 x i32], i32, i32, [2 x i32] }
%union.__atomic_wide_counter = type { i64 }
%struct.uv_fs_s = type { ptr, i32, [6 x ptr], i32, ptr, ptr, i64, ptr, ptr, %struct.uv_stat_t, ptr, i32, i32, i32, i32, ptr, i64, i32, i32, double, double, %struct.uv__work, [4 x %struct.uv_buf_t] }
%struct.uv_stat_t = type { i64, i64, i64, i64, i64, i64, i64, i64, i64, i64, i64, i64, %struct.uv_timespec_t, %struct.uv_timespec_t, %struct.uv_timespec_t, %struct.uv_timespec_t }
%struct.uv_timespec_t = type { i64, i64 }
%struct.uv__work = type { ptr, ptr, ptr, %struct.uv__queue }
%struct.uv_buf_t = type { ptr, i64 }
%"class.std::queue" = type { %"class.std::deque" }
%"class.std::deque" = type { %"class.std::_Deque_base" }
%"class.std::_Deque_base" = type { %"struct.std::_Deque_base<node::tracing::NodeTraceWriter::WriteRequest, std::allocator<node::tracing::NodeTraceWriter::WriteRequest>>::_Deque_impl" }
%"struct.std::_Deque_base<node::tracing::NodeTraceWriter::WriteRequest, std::allocator<node::tracing::NodeTraceWriter::WriteRequest>>::_Deque_impl" = type { %"struct.std::_Deque_base<node::tracing::NodeTraceWriter::WriteRequest, std::allocator<node::tracing::NodeTraceWriter::WriteRequest>>::_Deque_impl_data" }
%"struct.std::_Deque_base<node::tracing::NodeTraceWriter::WriteRequest, std::allocator<node::tracing::NodeTraceWriter::WriteRequest>>::_Deque_impl_data" = type { ptr, i64, %"struct.std::_Deque_iterator", %"struct.std::_Deque_iterator" }
%"struct.std::_Deque_iterator" = type { ptr, ptr, ptr, ptr }
%"class.std::__cxx11::basic_string" = type { %"struct.std::__cxx11::basic_string<char>::_Alloc_hider", i64, %union.anon.3 }
%"struct.std::__cxx11::basic_string<char>::_Alloc_hider" = type { ptr }
%union.anon.3 = type { i64, [8 x i8] }
%"class.std::__cxx11::basic_ostringstream" = type { %"class.std::basic_ostream.base", %"class.std::__cxx11::basic_stringbuf", %"class.std::basic_ios" }
%"class.std::basic_ostream.base" = type { ptr }
%"class.std::__cxx11::basic_stringbuf" = type { %"class.std::basic_streambuf", i32, %"class.std::__cxx11::basic_string" }
%"class.std::basic_streambuf" = type { ptr, ptr, ptr, ptr, ptr, ptr, ptr, %"class.std::locale" }
%"class.std::locale" = type { ptr }
%"class.std::basic_ios" = type { %"class.std::ios_base", ptr, i8, i8, ptr, ptr, ptr, ptr }
%"class.std::ios_base" = type { ptr, i64, i64, i32, i32, i32, ptr, %"struct.std::ios_base::_Words", [8 x %"struct.std::ios_base::_Words"], i32, ptr, %"class.std::locale" }
%"struct.std::ios_base::_Words" = type { ptr, i64 }
%"class.std::unique_ptr" = type { %"struct.std::__uniq_ptr_data" }
%"struct.std::__uniq_ptr_data" = type { %"class.std::__uniq_ptr_impl" }
%"class.std::__uniq_ptr_impl" = type { %"class.std::tuple" }
%"class.std::tuple" = type { %"struct.std::_Tuple_impl" }
%"struct.std::_Tuple_impl" = type { %"struct.std::_Head_base.5" }
%"struct.std::_Head_base.5" = type { ptr }
%"class.std::allocator.0" = type { i8 }

@.str.9 = private unnamed_addr constant [7 x i8] c"${pid}\00", align 1
@.str.10 = private unnamed_addr constant [12 x i8] c"${rotation}\00", align 1
@_ZZN4node7tracing15NodeTraceWriter23OpenNewFileForStreamingEvE4args = internal constant %"struct.node::AssertionInfo" { ptr @.str.11, ptr @.str.12, ptr @.str.13 }, align 8
@stderr = external global ptr, align 8
@.str.14 = private unnamed_addr constant [34 x i8] c"Could not open trace file %s: %s\0A\00", align 1
@.str.30 = private unnamed_addr constant [50 x i8] c"basic_string: construction from null is not valid\00", align 1

; Function Attrs: mustprogress nounwind uwtable
define linkonce_odr dso_local noundef i64 @_ZNSt11char_traitsIcE6lengthEPKc(ptr noundef %__s) #0 comdat align 2 {
entry:
  %__s.addr = alloca ptr, align 8
  store ptr %__s, ptr %__s.addr, align 8
  %0 = load ptr, ptr %__s.addr, align 8
  %call = call i64 @strlen(ptr noundef %0) #10
  ret i64 %call
}

; Function Attrs: mustprogress nounwind uwtable
define dso_local void @_ZN4node7tracing17replace_substringEPNSt7__cxx1112basic_stringIcSt11char_traitsIcESaIcEEERKS6_S9_(ptr noundef %target, ptr noundef nonnull align 8 dereferenceable(32) %search, ptr noundef nonnull align 8 dereferenceable(32) %insert) #0 {
entry:
  %target.addr = alloca ptr, align 8
  %search.addr = alloca ptr, align 8
  %insert.addr = alloca ptr, align 8
  %pos = alloca i64, align 8
  store ptr %target, ptr %target.addr, align 8
  store ptr %search, ptr %search.addr, align 8
  store ptr %insert, ptr %insert.addr, align 8
  %0 = load ptr, ptr %target.addr, align 8
  %1 = load ptr, ptr %search.addr, align 8
  %call = call noundef i64 @_ZNKSt7__cxx1112basic_stringIcSt11char_traitsIcESaIcEE4findERKS4_m(ptr noundef nonnull align 8 dereferenceable(32) %0, ptr noundef nonnull align 8 dereferenceable(32) %1, i64 noundef 0) #10
  store i64 %call, ptr %pos, align 8
  br label %for.cond

for.cond:                                         ; preds = %for.inc, %entry
  %2 = load i64, ptr %pos, align 8
  %cmp = icmp ne i64 %2, -1
  br i1 %cmp, label %for.body, label %for.end

for.body:                                         ; preds = %for.cond
  %3 = load ptr, ptr %target.addr, align 8
  %4 = load i64, ptr %pos, align 8
  %5 = load ptr, ptr %search.addr, align 8
  %call1 = call noundef i64 @_ZNKSt7__cxx1112basic_stringIcSt11char_traitsIcESaIcEE4sizeEv(ptr noundef nonnull align 8 dereferenceable(32) %5) #10
  %6 = load ptr, ptr %insert.addr, align 8
  %call2 = call noundef nonnull align 8 dereferenceable(32) ptr @_ZNSt7__cxx1112basic_stringIcSt11char_traitsIcESaIcEE7replaceEmmRKS4_(ptr noundef nonnull align 8 dereferenceable(32) %3, i64 noundef %4, i64 noundef %call1, ptr noundef nonnull align 8 dereferenceable(32) %6)
  %7 = load ptr, ptr %insert.addr, align 8
  %call3 = call noundef i64 @_ZNKSt7__cxx1112basic_stringIcSt11char_traitsIcESaIcEE4sizeEv(ptr noundef nonnull align 8 dereferenceable(32) %7) #10
  %8 = load i64, ptr %pos, align 8
  %add = add i64 %8, %call3
  store i64 %add, ptr %pos, align 8
  br label %for.inc

for.inc:                                          ; preds = %for.body
  %9 = load ptr, ptr %target.addr, align 8
  %10 = load ptr, ptr %search.addr, align 8
  %11 = load i64, ptr %pos, align 8
  %call4 = call noundef i64 @_ZNKSt7__cxx1112basic_stringIcSt11char_traitsIcESaIcEE4findERKS4_m(ptr noundef nonnull align 8 dereferenceable(32) %9, ptr noundef nonnull align 8 dereferenceable(32) %10, i64 noundef %11) #10
  store i64 %call4, ptr %pos, align 8
  br label %for.cond, !llvm.loop !7

for.end:                                          ; preds = %for.cond
  ret void
}

; Function Attrs: mustprogress nounwind uwtable
define linkonce_odr dso_local void @_ZNSt7__cxx1112basic_stringIcSt11char_traitsIcESaIcEEC2IS3_EEPKcRKS3_(ptr noundef nonnull align 8 dereferenceable(32) %this, ptr noundef %__s, ptr noundef nonnull align 1 dereferenceable(1) %__a) unnamed_addr #0 comdat align 2 {
entry:
  %this.addr = alloca ptr, align 8
  %__s.addr = alloca ptr, align 8
  %__a.addr = alloca ptr, align 8
  %__end = alloca ptr, align 8
  store ptr %this, ptr %this.addr, align 8
  store ptr %__s, ptr %__s.addr, align 8
  store ptr %__a, ptr %__a.addr, align 8
  %this1 = load ptr, ptr %this.addr, align 8
  %_M_dataplus = getelementptr inbounds %"class.std::__cxx11::basic_string", ptr %this1, i32 0, i32 0
  %call = call noundef ptr @_ZNSt7__cxx1112basic_stringIcSt11char_traitsIcESaIcEE13_M_local_dataEv(ptr noundef nonnull align 8 dereferenceable(32) %this1)
  %0 = load ptr, ptr %__a.addr, align 8
  call void @_ZNSt7__cxx1112basic_stringIcSt11char_traitsIcESaIcEE12_Alloc_hiderC1EPcRKS3_(ptr noundef nonnull align 8 dereferenceable(8) %_M_dataplus, ptr noundef %call, ptr noundef nonnull align 1 dereferenceable(1) %0)
  %1 = load ptr, ptr %__s.addr, align 8
  %cmp = icmp eq ptr %1, null
  br i1 %cmp, label %if.then, label %if.end

if.then:                                          ; preds = %entry
  call void @_ZSt19__throw_logic_errorPKc(ptr noundef @.str.30) #13
  unreachable

if.end:                                           ; preds = %entry
  %2 = load ptr, ptr %__s.addr, align 8
  %3 = load ptr, ptr %__s.addr, align 8
  %call2 = call noundef i64 @_ZNSt11char_traitsIcE6lengthEPKc(ptr noundef %3)
  %add.ptr = getelementptr inbounds i8, ptr %2, i64 %call2
  store ptr %add.ptr, ptr %__end, align 8
  %4 = load ptr, ptr %__s.addr, align 8
  %5 = load ptr, ptr %__end, align 8
  call void @_ZNSt7__cxx1112basic_stringIcSt11char_traitsIcESaIcEE12_M_constructIPKcEEvT_S8_St20forward_iterator_tag(ptr noundef nonnull align 8 dereferenceable(32) %this1, ptr noundef %4, ptr noundef %5)
  ret void
}

; Function Attrs: mustprogress nounwind uwtable
define dso_local void @_ZN4node7tracing15NodeTraceWriter23OpenNewFileForStreamingEv(ptr noundef nonnull align 8 dereferenceable(1409) %this) #0 align 2 {
entry:
  %this.addr = alloca ptr, align 8
  %req = alloca %struct.uv_fs_s, align 8
  %filepath = alloca %"class.std::__cxx11::basic_string", align 8
  %ref.tmp = alloca %"class.std::__cxx11::basic_string", align 8
  %ref.tmp2 = alloca %"class.std::allocator.0", align 1
  %ref.tmp3 = alloca %"class.std::__cxx11::basic_string", align 8
  %ref.tmp4 = alloca %"class.std::__cxx11::basic_string", align 8
  %ref.tmp5 = alloca %"class.std::allocator.0", align 1
  %ref.tmp6 = alloca %"class.std::__cxx11::basic_string", align 8
  store ptr %this, ptr %this.addr, align 8
  %this1 = load ptr, ptr %this.addr, align 8
  %file_num_ = getelementptr inbounds %"class.node::tracing::NodeTraceWriter", ptr %this1, i32 0, i32 15
  %0 = load i32, ptr %file_num_, align 4
  %inc = add nsw i32 %0, 1
  store i32 %inc, ptr %file_num_, align 4
  %log_file_pattern_ = getelementptr inbounds %"class.node::tracing::NodeTraceWriter", ptr %this1, i32 0, i32 16
  call void @_ZNSt7__cxx1112basic_stringIcSt11char_traitsIcESaIcEEC1ERKS4_(ptr noundef nonnull align 8 dereferenceable(32) %filepath, ptr noundef nonnull align 8 dereferenceable(32) %log_file_pattern_)
  call void @_ZNSaIcEC1Ev(ptr noundef nonnull align 1 dereferenceable(1) %ref.tmp2) #10
  call void @_ZNSt7__cxx1112basic_stringIcSt11char_traitsIcESaIcEEC2IS3_EEPKcRKS3_(ptr noundef nonnull align 8 dereferenceable(32) %ref.tmp, ptr noundef @.str.9, ptr noundef nonnull align 1 dereferenceable(1) %ref.tmp2)
  %call = call i32 @uv_os_getpid()
  call void @_ZNSt7__cxx119to_stringEi(ptr sret(%"class.std::__cxx11::basic_string") align 8 %ref.tmp3, i32 noundef %call) #10
  call void @_ZN4node7tracing17replace_substringEPNSt7__cxx1112basic_stringIcSt11char_traitsIcESaIcEEERKS6_S9_(ptr noundef %filepath, ptr noundef nonnull align 8 dereferenceable(32) %ref.tmp, ptr noundef nonnull align 8 dereferenceable(32) %ref.tmp3)
  call void @_ZNSt7__cxx1112basic_stringIcSt11char_traitsIcESaIcEED1Ev(ptr noundef nonnull align 8 dereferenceable(32) %ref.tmp3) #10
  call void @_ZNSt7__cxx1112basic_stringIcSt11char_traitsIcESaIcEED1Ev(ptr noundef nonnull align 8 dereferenceable(32) %ref.tmp) #10
  call void @_ZNSaIcED1Ev(ptr noundef nonnull align 1 dereferenceable(1) %ref.tmp2) #10
  call void @_ZNSaIcEC1Ev(ptr noundef nonnull align 1 dereferenceable(1) %ref.tmp5) #10
  call void @_ZNSt7__cxx1112basic_stringIcSt11char_traitsIcESaIcEEC2IS3_EEPKcRKS3_(ptr noundef nonnull align 8 dereferenceable(32) %ref.tmp4, ptr noundef @.str.10, ptr noundef nonnull align 1 dereferenceable(1) %ref.tmp5)
  %file_num_7 = getelementptr inbounds %"class.node::tracing::NodeTraceWriter", ptr %this1, i32 0, i32 15
  %1 = load i32, ptr %file_num_7, align 4
  call void @_ZNSt7__cxx119to_stringEi(ptr sret(%"class.std::__cxx11::basic_string") align 8 %ref.tmp6, i32 noundef %1) #10
  call void @_ZN4node7tracing17replace_substringEPNSt7__cxx1112basic_stringIcSt11char_traitsIcESaIcEEERKS6_S9_(ptr noundef %filepath, ptr noundef nonnull align 8 dereferenceable(32) %ref.tmp4, ptr noundef nonnull align 8 dereferenceable(32) %ref.tmp6)
  call void @_ZNSt7__cxx1112basic_stringIcSt11char_traitsIcESaIcEED1Ev(ptr noundef nonnull align 8 dereferenceable(32) %ref.tmp6) #10
  call void @_ZNSt7__cxx1112basic_stringIcSt11char_traitsIcESaIcEED1Ev(ptr noundef nonnull align 8 dereferenceable(32) %ref.tmp4) #10
  call void @_ZNSaIcED1Ev(ptr noundef nonnull align 1 dereferenceable(1) %ref.tmp5) #10
  %fd_ = getelementptr inbounds %"class.node::tracing::NodeTraceWriter", ptr %this1, i32 0, i32 8
  %2 = load i32, ptr %fd_, align 8
  %cmp = icmp ne i32 %2, -1
  br i1 %cmp, label %if.then, label %if.end17

if.then:                                          ; preds = %entry
  br label %do.body

do.body:                                          ; preds = %if.then
  %fd_8 = getelementptr inbounds %"class.node::tracing::NodeTraceWriter", ptr %this1, i32 0, i32 8
  %3 = load i32, ptr %fd_8, align 8
  %call9 = call i32 @uv_fs_close(ptr noundef null, ptr noundef %req, i32 noundef %3, ptr noundef null)
  %cmp10 = icmp eq i32 %call9, 0
  %lnot = xor i1 %cmp10, true
  %lnot11 = xor i1 %lnot, true
  %lnot12 = xor i1 %lnot11, true
  br i1 %lnot12, label %if.then13, label %if.end

if.then13:                                        ; preds = %do.body
  br label %do.body14

do.body14:                                        ; preds = %if.then13
  call void @_ZN4node6AssertERKNS_13AssertionInfoE(ptr noundef nonnull align 8 dereferenceable(24) @_ZZN4node7tracing15NodeTraceWriter23OpenNewFileForStreamingEvE4args)
  call void @abort() #11
  unreachable

do.cond:                                          ; No predecessors!
  br label %do.end

do.end:                                           ; preds = %do.cond
  br label %if.end

if.end:                                           ; preds = %do.end, %do.body
  br label %do.cond15

do.cond15:                                        ; preds = %if.end
  br label %do.end16

do.end16:                                         ; preds = %do.cond15
  call void @uv_fs_req_cleanup(ptr noundef %req)
  br label %if.end17

if.end17:                                         ; preds = %do.end16, %entry
  %call18 = call noundef ptr @_ZNKSt7__cxx1112basic_stringIcSt11char_traitsIcESaIcEE5c_strEv(ptr noundef nonnull align 8 dereferenceable(32) %filepath) #10
  %call19 = call i32 @uv_fs_open(ptr noundef null, ptr noundef %req, ptr noundef %call18, i32 noundef 577, i32 noundef 420, ptr noundef null)
  %fd_20 = getelementptr inbounds %"class.node::tracing::NodeTraceWriter", ptr %this1, i32 0, i32 8
  store i32 %call19, ptr %fd_20, align 8
  call void @uv_fs_req_cleanup(ptr noundef %req)
  %fd_21 = getelementptr inbounds %"class.node::tracing::NodeTraceWriter", ptr %this1, i32 0, i32 8
  %4 = load i32, ptr %fd_21, align 8
  %cmp22 = icmp slt i32 %4, 0
  br i1 %cmp22, label %if.then23, label %if.end29

if.then23:                                        ; preds = %if.end17
  %5 = load ptr, ptr @stderr, align 8
  %call24 = call noundef ptr @_ZNKSt7__cxx1112basic_stringIcSt11char_traitsIcESaIcEE5c_strEv(ptr noundef nonnull align 8 dereferenceable(32) %filepath) #10
  %fd_25 = getelementptr inbounds %"class.node::tracing::NodeTraceWriter", ptr %this1, i32 0, i32 8
  %6 = load i32, ptr %fd_25, align 8
  %call26 = call ptr @uv_strerror(i32 noundef %6)
  %call27 = call i32 (ptr, ptr, ...) @fprintf(ptr noundef %5, ptr noundef @.str.14, ptr noundef %call24, ptr noundef %call26)
  %fd_28 = getelementptr inbounds %"class.node::tracing::NodeTraceWriter", ptr %this1, i32 0, i32 8
  store i32 -1, ptr %fd_28, align 8
  br label %if.end29

if.end29:                                         ; preds = %if.then23, %if.end17
  call void @_ZNSt7__cxx1112basic_stringIcSt11char_traitsIcESaIcEED1Ev(ptr noundef nonnull align 8 dereferenceable(32) %filepath) #10
  ret void
}