; Function Attrs: mustprogress nounwind uwtable
define dso_local void @_ZN4node7tracing15NodeTraceWriter23OpenNewFileForStreamingEv(ptr noundef nonnull align 8 dereferenceable(1409) %this) local_unnamed_addr #0 align 2 {
entry:
  %req = alloca %struct.uv_fs_s, align 8
  %filepath = alloca %"class.std::__cxx11::basic_string", align 8
  %ref.tmp = alloca %"class.std::__cxx11::basic_string", align 8
  %ref.tmp2 = alloca %"class.std::allocator.0", align 1
  %ref.tmp3 = alloca %"class.std::__cxx11::basic_string", align 8
  %ref.tmp4 = alloca %"class.std::__cxx11::basic_string", align 8
  %ref.tmp5 = alloca %"class.std::allocator.0", align 1
  %ref.tmp6 = alloca %"class.std::__cxx11::basic_string", align 8
  %file_num_ = getelementptr inbounds i8, ptr %this, i64 988
  %0 = load i32, ptr %file_num_, align 4
  %inc = add nsw i32 %0, 1
  store i32 %inc, ptr %file_num_, align 4
  %log_file_pattern_ = getelementptr inbounds i8, ptr %this, i64 992
  call void @_ZNSt7__cxx1112basic_stringIcSt11char_traitsIcESaIcEEC1ERKS4_(ptr noundef nonnull align 8 dereferenceable(32) %filepath, ptr noundef nonnull align 8 dereferenceable(32) %log_file_pattern_) #12
  call void @_ZNSaIcEC1Ev(ptr noundef nonnull align 1 dereferenceable(1) %ref.tmp2) #12
  %call.i = call noundef ptr @_ZNSt7__cxx1112basic_stringIcSt11char_traitsIcESaIcEE13_M_local_dataEv(ptr noundef nonnull align 8 dereferenceable(32) %ref.tmp) #12
  call void @_ZNSt7__cxx1112basic_stringIcSt11char_traitsIcESaIcEE12_Alloc_hiderC1EPcRKS3_(ptr noundef nonnull align 8 dereferenceable(8) %ref.tmp, ptr noundef %call.i, ptr noundef nonnull align 1 dereferenceable(1) %ref.tmp2) #12
  call void @_ZNSt7__cxx1112basic_stringIcSt11char_traitsIcESaIcEE12_M_constructIPKcEEvT_S8_St20forward_iterator_tag(ptr noundef nonnull align 8 dereferenceable(32) %ref.tmp, ptr noundef nonnull @.str.9, ptr noundef nonnull getelementptr inbounds ([7 x i8], ptr @.str.9, i64 0, i64 6))
  %call = call i32 @uv_os_getpid() #12
  call void @_ZNSt7__cxx119to_stringEi(ptr nonnull sret(%"class.std::__cxx11::basic_string") align 8 %ref.tmp3, i32 noundef %call) #12
  %call.i1 = call noundef i64 @_ZNKSt7__cxx1112basic_stringIcSt11char_traitsIcESaIcEE4findERKS4_m(ptr noundef nonnull align 8 dereferenceable(32) %filepath, ptr noundef nonnull align 8 dereferenceable(32) %ref.tmp, i64 noundef 0) #12
  %cmp.not9.i = icmp eq i64 %call.i1, -1
  br i1 %cmp.not9.i, label %_ZN4node7tracing17replace_substringEPNSt7__cxx1112basic_stringIcSt11char_traitsIcESaIcEEERKS6_S9_.exit, label %for.body.i

for.body.i:                                       ; preds = %entry, %for.body.i
  %pos.010.i = phi i64 [ %call4.i, %for.body.i ], [ %call.i1, %entry ]
  %call1.i = call noundef i64 @_ZNKSt7__cxx1112basic_stringIcSt11char_traitsIcESaIcEE4sizeEv(ptr noundef nonnull align 8 dereferenceable(32) %ref.tmp) #12
  %call2.i = call noundef nonnull align 8 dereferenceable(32) ptr @_ZNSt7__cxx1112basic_stringIcSt11char_traitsIcESaIcEE7replaceEmmRKS4_(ptr noundef nonnull align 8 dereferenceable(32) %filepath, i64 noundef %pos.010.i, i64 noundef %call1.i, ptr noundef nonnull align 8 dereferenceable(32) %ref.tmp3) #12
  %call3.i = call noundef i64 @_ZNKSt7__cxx1112basic_stringIcSt11char_traitsIcESaIcEE4sizeEv(ptr noundef nonnull align 8 dereferenceable(32) %ref.tmp3) #12
  %add.i = add i64 %call3.i, %pos.010.i
  %call4.i = call noundef i64 @_ZNKSt7__cxx1112basic_stringIcSt11char_traitsIcESaIcEE4findERKS4_m(ptr noundef nonnull align 8 dereferenceable(32) %filepath, ptr noundef nonnull align 8 dereferenceable(32) %ref.tmp, i64 noundef %add.i) #12
  %cmp.not.i = icmp eq i64 %call4.i, -1
  br i1 %cmp.not.i, label %_ZN4node7tracing17replace_substringEPNSt7__cxx1112basic_stringIcSt11char_traitsIcESaIcEEERKS6_S9_.exit, label %for.body.i, !llvm.loop !7

_ZN4node7tracing17replace_substringEPNSt7__cxx1112basic_stringIcSt11char_traitsIcESaIcEEERKS6_S9_.exit: ; preds = %for.body.i, %entry
  call void @_ZNSt7__cxx1112basic_stringIcSt11char_traitsIcESaIcEED1Ev(ptr noundef nonnull align 8 dereferenceable(32) %ref.tmp3) #12
  call void @_ZNSt7__cxx1112basic_stringIcSt11char_traitsIcESaIcEED1Ev(ptr noundef nonnull align 8 dereferenceable(32) %ref.tmp) #12
  call void @_ZNSaIcED1Ev(ptr noundef nonnull align 1 dereferenceable(1) %ref.tmp2) #12
  call void @_ZNSaIcEC1Ev(ptr noundef nonnull align 1 dereferenceable(1) %ref.tmp5) #12
  %call.i2 = call noundef ptr @_ZNSt7__cxx1112basic_stringIcSt11char_traitsIcESaIcEE13_M_local_dataEv(ptr noundef nonnull align 8 dereferenceable(32) %ref.tmp4) #12
  call void @_ZNSt7__cxx1112basic_stringIcSt11char_traitsIcESaIcEE12_Alloc_hiderC1EPcRKS3_(ptr noundef nonnull align 8 dereferenceable(8) %ref.tmp4, ptr noundef %call.i2, ptr noundef nonnull align 1 dereferenceable(1) %ref.tmp5) #12
  call void @_ZNSt7__cxx1112basic_stringIcSt11char_traitsIcESaIcEE12_M_constructIPKcEEvT_S8_St20forward_iterator_tag(ptr noundef nonnull align 8 dereferenceable(32) %ref.tmp4, ptr noundef nonnull @.str.10, ptr noundef nonnull getelementptr inbounds ([12 x i8], ptr @.str.10, i64 0, i64 11))
  %1 = load i32, ptr %file_num_, align 4
  call void @_ZNSt7__cxx119to_stringEi(ptr nonnull sret(%"class.std::__cxx11::basic_string") align 8 %ref.tmp6, i32 noundef %1) #12
  %call.i5 = call noundef i64 @_ZNKSt7__cxx1112basic_stringIcSt11char_traitsIcESaIcEE4findERKS4_m(ptr noundef nonnull align 8 dereferenceable(32) %filepath, ptr noundef nonnull align 8 dereferenceable(32) %ref.tmp4, i64 noundef 0) #12
  %cmp.not9.i6 = icmp eq i64 %call.i5, -1
  br i1 %cmp.not9.i6, label %_ZN4node7tracing17replace_substringEPNSt7__cxx1112basic_stringIcSt11char_traitsIcESaIcEEERKS6_S9_.exit15, label %for.body.i7

for.body.i7:                                      ; preds = %_ZN4node7tracing17replace_substringEPNSt7__cxx1112basic_stringIcSt11char_traitsIcESaIcEEERKS6_S9_.exit, %for.body.i7
  %pos.010.i8 = phi i64 [ %call4.i13, %for.body.i7 ], [ %call.i5, %_ZN4node7tracing17replace_substringEPNSt7__cxx1112basic_stringIcSt11char_traitsIcESaIcEEERKS6_S9_.exit ]
  %call1.i9 = call noundef i64 @_ZNKSt7__cxx1112basic_stringIcSt11char_traitsIcESaIcEE4sizeEv(ptr noundef nonnull align 8 dereferenceable(32) %ref.tmp4) #12
  %call2.i10 = call noundef nonnull align 8 dereferenceable(32) ptr @_ZNSt7__cxx1112basic_stringIcSt11char_traitsIcESaIcEE7replaceEmmRKS4_(ptr noundef nonnull align 8 dereferenceable(32) %filepath, i64 noundef %pos.010.i8, i64 noundef %call1.i9, ptr noundef nonnull align 8 dereferenceable(32) %ref.tmp6) #12
  %call3.i11 = call noundef i64 @_ZNKSt7__cxx1112basic_stringIcSt11char_traitsIcESaIcEE4sizeEv(ptr noundef nonnull align 8 dereferenceable(32) %ref.tmp6) #12
  %add.i12 = add i64 %call3.i11, %pos.010.i8
  %call4.i13 = call noundef i64 @_ZNKSt7__cxx1112basic_stringIcSt11char_traitsIcESaIcEE4findERKS4_m(ptr noundef nonnull align 8 dereferenceable(32) %filepath, ptr noundef nonnull align 8 dereferenceable(32) %ref.tmp4, i64 noundef %add.i12) #12
  %cmp.not.i14 = icmp eq i64 %call4.i13, -1
  br i1 %cmp.not.i14, label %_ZN4node7tracing17replace_substringEPNSt7__cxx1112basic_stringIcSt11char_traitsIcESaIcEEERKS6_S9_.exit15, label %for.body.i7, !llvm.loop !7

_ZN4node7tracing17replace_substringEPNSt7__cxx1112basic_stringIcSt11char_traitsIcESaIcEEERKS6_S9_.exit15: ; preds = %for.body.i7, %_ZN4node7tracing17replace_substringEPNSt7__cxx1112basic_stringIcSt11char_traitsIcESaIcEEERKS6_S9_.exit
  call void @_ZNSt7__cxx1112basic_stringIcSt11char_traitsIcESaIcEED1Ev(ptr noundef nonnull align 8 dereferenceable(32) %ref.tmp6) #12
  call void @_ZNSt7__cxx1112basic_stringIcSt11char_traitsIcESaIcEED1Ev(ptr noundef nonnull align 8 dereferenceable(32) %ref.tmp4) #12
  call void @_ZNSaIcED1Ev(ptr noundef nonnull align 1 dereferenceable(1) %ref.tmp5) #12
  %fd_ = getelementptr inbounds i8, ptr %this, i64 448
  %2 = load i32, ptr %fd_, align 8
  %cmp.not = icmp eq i32 %2, -1
  br i1 %cmp.not, label %if.end17, label %do.body

do.body:                                          ; preds = %_ZN4node7tracing17replace_substringEPNSt7__cxx1112basic_stringIcSt11char_traitsIcESaIcEEERKS6_S9_.exit15
  %call9 = call i32 @uv_fs_close(ptr noundef null, ptr noundef nonnull %req, i32 noundef %2, ptr noundef null) #12
  %cmp10.not = icmp eq i32 %call9, 0
  br i1 %cmp10.not, label %do.end16, label %do.body14

do.body14:                                        ; preds = %do.body
  call void @_ZN4node6AssertERKNS_13AssertionInfoE(ptr noundef nonnull align 8 dereferenceable(24) @_ZZN4node7tracing15NodeTraceWriter23OpenNewFileForStreamingEvE4args) #12
  call void @abort() #13
  unreachable

do.end16:                                         ; preds = %do.body
  call void @uv_fs_req_cleanup(ptr noundef nonnull %req) #12
  br label %if.end17

if.end17:                                         ; preds = %do.end16, %_ZN4node7tracing17replace_substringEPNSt7__cxx1112basic_stringIcSt11char_traitsIcESaIcEEERKS6_S9_.exit15
  %call18 = call noundef ptr @_ZNKSt7__cxx1112basic_stringIcSt11char_traitsIcESaIcEE5c_strEv(ptr noundef nonnull align 8 dereferenceable(32) %filepath) #12
  %call19 = call i32 @uv_fs_open(ptr noundef null, ptr noundef nonnull %req, ptr noundef %call18, i32 noundef 577, i32 noundef 420, ptr noundef null) #12
  store i32 %call19, ptr %fd_, align 8
  call void @uv_fs_req_cleanup(ptr noundef nonnull %req) #12
  %3 = load i32, ptr %fd_, align 8
  %cmp22 = icmp slt i32 %3, 0
  br i1 %cmp22, label %if.then23, label %if.end29

if.then23:                                        ; preds = %if.end17
  %4 = load ptr, ptr @stderr, align 8
  %call24 = call noundef ptr @_ZNKSt7__cxx1112basic_stringIcSt11char_traitsIcESaIcEE5c_strEv(ptr noundef nonnull align 8 dereferenceable(32) %filepath) #12
  %5 = load i32, ptr %fd_, align 8
  %call26 = call ptr @uv_strerror(i32 noundef %5) #12
  %call27 = call i32 (ptr, ptr, ...) @fprintf(ptr noundef %4, ptr noundef nonnull @.str.14, ptr noundef %call24, ptr noundef %call26) #16
  store i32 -1, ptr %fd_, align 8
  br label %if.end29

if.end29:                                         ; preds = %if.then23, %if.end17
  call void @_ZNSt7__cxx1112basic_stringIcSt11char_traitsIcESaIcEED1Ev(ptr noundef nonnull align 8 dereferenceable(32) %filepath) #12
  ret void
}